
BuildUP.elf:     file format elf32-avr

Sections:
Idx Name          Size      VMA       LMA       File off  Algn
  0 .text         00000166  00000000  00000000  00000074  2**1
                  CONTENTS, ALLOC, LOAD, READONLY, CODE
  1 .bss          00000004  00800060  00800060  000001da  2**0
                  ALLOC
  2 .noinit       00000001  00800064  00800064  000001da  2**0
                  ALLOC

Disassembly of section .text:

00000000 <__vectors>:
   0:	09 c0       	rjmp	.+18     	; 0x14 <__ctors_end>
   2:	33 c0       	rjmp	.+102    	; 0x6a <__bad_interrupt>
   4:	32 c0       	rjmp	.+100    	; 0x6a <__bad_interrupt>
   6:	8d c0       	rjmp	.+282    	; 0x122 <__vector_3>
   8:	30 c0       	rjmp	.+96     	; 0x6a <__bad_interrupt>
   a:	2f c0       	rjmp	.+94     	; 0x6a <__bad_interrupt>
   c:	2e c0       	rjmp	.+92     	; 0x6a <__bad_interrupt>
   e:	2d c0       	rjmp	.+90     	; 0x6a <__bad_interrupt>
  10:	2c c0       	rjmp	.+88     	; 0x6a <__bad_interrupt>
  12:	2b c0       	rjmp	.+86     	; 0x6a <__bad_interrupt>

00000014 <__ctors_end>:
  14:	11 24       	eor	r1, r1
  16:	1f be       	out	0x3f, r1	; 63
  18:	cf e9       	ldi	r28, 0x9F	; 159
  1a:	cd bf       	out	0x3d, r28	; 61

0000001c <init>:
  1c:	80 e8       	ldi	r24, 0x80	; 128
  1e:	88 b9       	out	0x08, r24	; 8
  20:	8f e3       	ldi	r24, 0x3F	; 63
  22:	84 bb       	out	0x14, r24	; 20
  24:	04 b6       	in	r0, 0x34	; 52
  26:	00 fc       	sbrc	r0, 0
  28:	0c c0       	rjmp	.+24     	; 0x42 <__SREG__+0x3>
  2a:	04 b6       	in	r0, 0x34	; 52
  2c:	01 fe       	sbrs	r0, 1
  2e:	0b c0       	rjmp	.+22     	; 0x46 <__SREG__+0x7>
  30:	80 91 64 00 	lds	r24, 0x0064
  34:	8f 5f       	subi	r24, 0xFF	; 255
  36:	80 93 64 00 	sts	0x0064, r24
  3a:	80 91 64 00 	lds	r24, 0x0064
  3e:	82 30       	cpi	r24, 0x02	; 2
  40:	10 f0       	brcs	.+4      	; 0x46 <__SREG__+0x7>
  42:	10 92 64 00 	sts	0x0064, r1
  46:	14 be       	out	0x34, r1	; 52
  48:	18 ba       	out	0x18, r1	; 24
  4a:	81 e0       	ldi	r24, 0x01	; 1
  4c:	87 bb       	out	0x17, r24	; 23
  4e:	83 bf       	out	0x33, r24	; 51
  50:	82 e0       	ldi	r24, 0x02	; 2
  52:	89 bf       	out	0x39, r24	; 57
  54:	78 94       	sei

00000056 <__do_clear_bss>:
  56:	10 e0       	ldi	r17, 0x00	; 0
  58:	a0 e6       	ldi	r26, 0x60	; 96
  5a:	b0 e0       	ldi	r27, 0x00	; 0
  5c:	01 c0       	rjmp	.+2      	; 0x60 <.do_clear_bss_start>

0000005e <.do_clear_bss_loop>:
  5e:	1d 92       	st	X+, r1

00000060 <.do_clear_bss_start>:
  60:	a4 36       	cpi	r26, 0x64	; 100
  62:	b1 07       	cpc	r27, r17
  64:	e1 f7       	brne	.-8      	; 0x5e <.do_clear_bss_loop>
  66:	48 d0       	rcall	.+144    	; 0xf8 <main>
  68:	7c c0       	rjmp	.+248    	; 0x162 <_exit>

0000006a <__bad_interrupt>:
  6a:	ca cf       	rjmp	.-108    	; 0x0 <__vectors>

0000006c <delay>:
  6c:	90 93 61 00 	sts	0x0061, r25
  70:	80 93 60 00 	sts	0x0060, r24
  74:	20 e6       	ldi	r18, 0x60	; 96
  76:	02 c0       	rjmp	.+4      	; 0x7c <delay+0x10>
  78:	25 bf       	out	0x35, r18	; 53
  7a:	88 95       	sleep
  7c:	80 91 60 00 	lds	r24, 0x0060
  80:	90 91 61 00 	lds	r25, 0x0061
  84:	89 2b       	or	r24, r25
  86:	c1 f7       	brne	.-16     	; 0x78 <delay+0xc>
  88:	08 95       	ret

0000008a <blink>:
  8a:	10 92 63 00 	sts	0x0063, r1
  8e:	10 92 62 00 	sts	0x0062, r1
  92:	24 eb       	ldi	r18, 0xB4	; 180
  94:	30 e0       	ldi	r19, 0x00	; 0
  96:	71 e0       	ldi	r23, 0x01	; 1
  98:	4e e1       	ldi	r20, 0x1E	; 30
  9a:	50 e0       	ldi	r21, 0x00	; 0
  9c:	60 e6       	ldi	r22, 0x60	; 96
  9e:	78 bb       	out	0x18, r23	; 24
  a0:	50 93 61 00 	sts	0x0061, r21
  a4:	40 93 60 00 	sts	0x0060, r20
  a8:	02 c0       	rjmp	.+4      	; 0xae <__stack+0xf>
  aa:	65 bf       	out	0x35, r22	; 53
  ac:	88 95       	sleep
  ae:	80 91 60 00 	lds	r24, 0x0060
  b2:	90 91 61 00 	lds	r25, 0x0061
  b6:	89 2b       	or	r24, r25
  b8:	c1 f7       	brne	.-16     	; 0xaa <__stack+0xb>
  ba:	18 ba       	out	0x18, r1	; 24
  bc:	30 93 61 00 	sts	0x0061, r19
  c0:	20 93 60 00 	sts	0x0060, r18
  c4:	02 c0       	rjmp	.+4      	; 0xca <__stack+0x2b>
  c6:	65 bf       	out	0x35, r22	; 53
  c8:	88 95       	sleep
  ca:	80 91 60 00 	lds	r24, 0x0060
  ce:	90 91 61 00 	lds	r25, 0x0061
  d2:	89 2b       	or	r24, r25
  d4:	c1 f7       	brne	.-16     	; 0xc6 <__stack+0x27>
  d6:	80 91 62 00 	lds	r24, 0x0062
  da:	90 91 63 00 	lds	r25, 0x0063
  de:	80 5b       	subi	r24, 0xB0	; 176
  e0:	94 40       	sbci	r25, 0x04	; 4
  e2:	e8 f2       	brcs	.-70     	; 0x9e <blink+0x14>
  e4:	10 92 63 00 	sts	0x0063, r1
  e8:	10 92 62 00 	sts	0x0062, r1
  ec:	2f 31       	cpi	r18, 0x1F	; 31
  ee:	31 05       	cpc	r19, r1
  f0:	b0 f2       	brcs	.-84     	; 0x9e <blink+0x14>
  f2:	2e 51       	subi	r18, 0x1E	; 30
  f4:	30 40       	sbci	r19, 0x00	; 0
  f6:	d3 cf       	rjmp	.-90     	; 0x9e <blink+0x14>

000000f8 <main>:
  f8:	80 91 64 00 	lds	r24, 0x0064
  fc:	88 23       	and	r24, r24
  fe:	19 f0       	breq	.+6      	; 0x106 <main+0xe>
 100:	81 30       	cpi	r24, 0x01	; 1
 102:	71 f4       	brne	.+28     	; 0x120 <main+0x28>
 104:	02 c0       	rjmp	.+4      	; 0x10a <main+0x12>
 106:	c1 df       	rcall	.-126    	; 0x8a <blink>
 108:	08 95       	ret
 10a:	18 ba       	out	0x18, r1	; 24
 10c:	83 e0       	ldi	r24, 0x03	; 3
 10e:	22 e0       	ldi	r18, 0x02	; 2
 110:	90 e7       	ldi	r25, 0x70	; 112
 112:	f8 94       	cli
 114:	8c bf       	out	0x3c, r24	; 60
 116:	80 bf       	out	0x30, r24	; 48
 118:	20 bf       	out	0x30, r18	; 48
 11a:	95 bf       	out	0x35, r25	; 53
 11c:	88 95       	sleep
 11e:	f9 cf       	rjmp	.-14     	; 0x112 <main+0x1a>
 120:	08 95       	ret

00000122 <__vector_3>:
 122:	1f 92       	push	r1
 124:	0f 92       	push	r0
 126:	0f b6       	in	r0, 0x3f	; 63
 128:	0f 92       	push	r0
 12a:	11 24       	eor	r1, r1
 12c:	8f 93       	push	r24
 12e:	9f 93       	push	r25
 130:	80 91 60 00 	lds	r24, 0x0060
 134:	90 91 61 00 	lds	r25, 0x0061
 138:	01 97       	sbiw	r24, 0x01	; 1
 13a:	90 93 61 00 	sts	0x0061, r25
 13e:	80 93 60 00 	sts	0x0060, r24
 142:	80 91 62 00 	lds	r24, 0x0062
 146:	90 91 63 00 	lds	r25, 0x0063
 14a:	01 96       	adiw	r24, 0x01	; 1
 14c:	90 93 63 00 	sts	0x0063, r25
 150:	80 93 62 00 	sts	0x0062, r24
 154:	9f 91       	pop	r25
 156:	8f 91       	pop	r24
 158:	0f 90       	pop	r0
 15a:	0f be       	out	0x3f, r0	; 63
 15c:	0f 90       	pop	r0
 15e:	1f 90       	pop	r1
 160:	18 95       	reti

00000162 <_exit>:
 162:	f8 94       	cli

00000164 <__stop_program>:
 164:	ff cf       	rjmp	.-2      	; 0x164 <__stop_program>
